; Function Attrs: mustprogress nofree norecurse nosync nounwind willreturn memory(argmem: readwrite) uwtable
define void @ff_g722_update_high_predictor(ptr noundef captures(none) %0, i32 noundef %1, i32 noundef %2) local_unnamed_addr #0 {
  tail call fastcc void @do_adaptive_prediction(ptr noundef %0, i32 noundef %1)
  %4 = getelementptr inbounds nuw i8, ptr %0, i64 52
  %5 = load i16, ptr %4, align 4, !tbaa !11
  %6 = sext i16 %5 to i32
  %7 = mul nsw i32 %6, 127
  %8 = ashr i32 %7, 7
  %9 = and i32 %2, 1
  %10 = zext nneg i32 %9 to i64
  %11 = getelementptr inbounds nuw [2 x i16], ptr @high_log_factor_step, i64 0, i64 %10
  %12 = load i16, ptr %11, align 2, !tbaa !10
  %13 = sext i16 %12 to i32
  %14 = add nsw i32 %8, %13
  %15 = tail call i32 @llvm.smax.i32(i32 %14, i32 0)
  %16 = tail call i32 @llvm.umin.i32(i32 %15, i32 22528)
  %17 = trunc nuw nsw i32 %16 to i16
  store i16 %17, ptr %4, align 4, !tbaa !11
  %18 = add nsw i32 %16, -20480
  %19 = lshr i32 %16, 6
  %20 = and i32 %19, 31
  %21 = zext nneg i32 %20 to i64
  %22 = getelementptr inbounds nuw [32 x i16], ptr @inv_log2_table, i64 0, i64 %21
  %23 = load i16, ptr %22, align 2, !tbaa !10
  %24 = sext i16 %23 to i32
  %25 = ashr i32 %18, 11
  %26 = icmp slt i32 %25, 0
  %27 = sub nsw i32 0, %25
  %28 = ashr i32 %24, %27
  %29 = shl nsw i32 %24, %25
  %30 = select i1 %26, i32 %28, i32 %29
  %31 = trunc i32 %30 to i16
  %32 = getelementptr inbounds nuw i8, ptr %0, i64 54
  store i16 %31, ptr %32, align 2, !tbaa !4
  ret void
}